opt subtitle "HI-TECH Software Omniscient Code Generator (PRO mode) build 10920"

opt pagewidth 120

	opt pm

	processor	16F877A
clrc	macro
	bcf	3,0
	endm
clrz	macro
	bcf	3,2
	endm
setc	macro
	bsf	3,0
	endm
setz	macro
	bsf	3,2
	endm
skipc	macro
	btfss	3,0
	endm
skipz	macro
	btfss	3,2
	endm
skipnc	macro
	btfsc	3,0
	endm
skipnz	macro
	btfsc	3,2
	endm
indf	equ	0
indf0	equ	0
pc	equ	2
pcl	equ	2
status	equ	3
fsr	equ	4
fsr0	equ	4
c	equ	1
z	equ	0
pclath	equ	10
	FNCALL	_main,_delay
	FNROOT	_main
	global	_PORTC
psect	text33,local,class=CODE,delta=2
global __ptext33
__ptext33:
_PORTC	set	7
	global	_TRISC
_TRISC	set	135
	file	"7_SEGMENT.as"
	line	#
psect cinit,class=CODE,delta=2
global start_initialization
start_initialization:

psect cinit,class=CODE,delta=2
global end_of_initialization

;End of C runtime variable initialization code

end_of_initialization:
clrf status
ljmp _main	;jump to C main() function
psect	cstackCOMMON,class=COMMON,space=1
global __pcstackCOMMON
__pcstackCOMMON:
	global	?_delay
?_delay:	; 0 bytes @ 0x0
	global	?_main
?_main:	; 0 bytes @ 0x0
	global	delay@a
delay@a:	; 2 bytes @ 0x0
	ds	2
	global	??_delay
??_delay:	; 0 bytes @ 0x2
	ds	1
	global	delay@i
delay@i:	; 2 bytes @ 0x3
	ds	2
	global	??_main
??_main:	; 0 bytes @ 0x5
;;Data sizes: Strings 0, constant 0, data 0, bss 0, persistent 0 stack 0
;;Auto spaces:   Size  Autos    Used
;; COMMON          14      5       5
;; BANK0           80      0       0
;; BANK1           80      0       0
;; BANK3           96      0       0
;; BANK2           96      0       0

;;
;; Pointer list with targets:



;;
;; Critical Paths under _main in COMMON
;;
;;   _main->_delay
;;
;; Critical Paths under _main in BANK0
;;
;;   None.
;;
;; Critical Paths under _main in BANK1
;;
;;   None.
;;
;; Critical Paths under _main in BANK3
;;
;;   None.
;;
;; Critical Paths under _main in BANK2
;;
;;   None.

;;
;;Main: autosize = 0, tempsize = 0, incstack = 0, save=0
;;

;;
;;Call Graph Tables:
;;
;; ---------------------------------------------------------------------------------
;; (Depth) Function   	        Calls       Base Space   Used Autos Params    Refs
;; ---------------------------------------------------------------------------------
;; (0) _main                                                 0     0      0      30
;;                              _delay
;; ---------------------------------------------------------------------------------
;; (1) _delay                                                5     3      2      30
;;                                              0 COMMON     5     3      2
;; ---------------------------------------------------------------------------------
;; Estimated maximum stack depth 1
;; ---------------------------------------------------------------------------------

;; Call Graph Graphs:

;; _main (ROOT)
;;   _delay
;;

;; Address spaces:

;;Name               Size   Autos  Total    Cost      Usage
;;BITCOMMON            E      0       0       0        0.0%
;;EEDATA             100      0       0       0        0.0%
;;NULL                 0      0       0       0        0.0%
;;CODE                 0      0       0       0        0.0%
;;COMMON               E      5       5       1       35.7%
;;BITSFR0              0      0       0       1        0.0%
;;SFR0                 0      0       0       1        0.0%
;;BITSFR1              0      0       0       2        0.0%
;;SFR1                 0      0       0       2        0.0%
;;STACK                0      0       1       2        0.0%
;;ABS                  0      0       0       3        0.0%
;;BITBANK0            50      0       0       4        0.0%
;;BITSFR3              0      0       0       4        0.0%
;;SFR3                 0      0       0       4        0.0%
;;BANK0               50      0       0       5        0.0%
;;BITSFR2              0      0       0       5        0.0%
;;SFR2                 0      0       0       5        0.0%
;;BITBANK1            50      0       0       6        0.0%
;;BANK1               50      0       0       7        0.0%
;;BITBANK3            60      0       0       8        0.0%
;;BANK3               60      0       0       9        0.0%
;;BITBANK2            60      0       0      10        0.0%
;;BANK2               60      0       0      11        0.0%
;;DATA                 0      0       0      12        0.0%

	global	_main
psect	maintext,global,class=CODE,delta=2
global __pmaintext
__pmaintext:

;; *************** function _main *****************
;; Defined at:
;;		line 9 in file "D:\EMBEDDED_CLASS\PIC16\7 SEGMENT\7_SEG.c"
;; Parameters:    Size  Location     Type
;;		None
;; Auto vars:     Size  Location     Type
;;		None
;; Return value:  Size  Location     Type
;;		None               void
;; Registers used:
;;		wreg, status,2, status,0, pclath, cstack
;; Tracked objects:
;;		On entry : 17F/0
;;		On exit  : 0/0
;;		Unchanged: FFE00/0
;; Data sizes:     COMMON   BANK0   BANK1   BANK3   BANK2
;;      Params:         0       0       0       0       0
;;      Locals:         0       0       0       0       0
;;      Temps:          0       0       0       0       0
;;      Totals:         0       0       0       0       0
;;Total ram usage:        0 bytes
;; Hardware stack levels required when called:    1
;; This function calls:
;;		_delay
;; This function is called by:
;;		Startup code after reset
;; This function uses a non-reentrant model
;;
psect	maintext
	file	"D:\EMBEDDED_CLASS\PIC16\7 SEGMENT\7_SEG.c"
	line	9
	global	__size_of_main
	__size_of_main	equ	__end_of_main-_main
	
_main:	
	opt	stack 7
; Regs used in _main: [wreg+status,2+status,0+pclath+cstack]
	line	10
;7_SEG.c: 10: while(1)
	
l687:	
	line	12
	
l1749:	
;7_SEG.c: 11: {
;7_SEG.c: 12: TRISC=0x00;
	bsf	status, 5	;RP0=1, select bank1
	bcf	status, 6	;RP1=0, select bank1
	clrf	(135)^080h	;volatile
	line	13
	
l1751:	
;7_SEG.c: 13: PORTC=0xc0;
	movlw	(0C0h)
	bcf	status, 5	;RP0=0, select bank0
	movwf	(7)	;volatile
	line	14
	
l1753:	
;7_SEG.c: 14: delay(5000);
	movlw	low(01388h)
	movwf	(?_delay)
	movlw	high(01388h)
	movwf	((?_delay))+1
	fcall	_delay
	line	15
	
l1755:	
;7_SEG.c: 15: PORTC=0xf9;
	movlw	(0F9h)
	bcf	status, 5	;RP0=0, select bank0
	bcf	status, 6	;RP1=0, select bank0
	movwf	(7)	;volatile
	line	16
	
l1757:	
;7_SEG.c: 16: delay(5000);
	movlw	low(01388h)
	movwf	(?_delay)
	movlw	high(01388h)
	movwf	((?_delay))+1
	fcall	_delay
	line	17
	
l1759:	
;7_SEG.c: 17: PORTC=0xa4;
	movlw	(0A4h)
	bcf	status, 5	;RP0=0, select bank0
	bcf	status, 6	;RP1=0, select bank0
	movwf	(7)	;volatile
	line	18
	
l1761:	
;7_SEG.c: 18: delay(5000);
	movlw	low(01388h)
	movwf	(?_delay)
	movlw	high(01388h)
	movwf	((?_delay))+1
	fcall	_delay
	line	19
	
l1763:	
;7_SEG.c: 19: PORTC=0xb0;
	movlw	(0B0h)
	bcf	status, 5	;RP0=0, select bank0
	bcf	status, 6	;RP1=0, select bank0
	movwf	(7)	;volatile
	line	20
	
l1765:	
;7_SEG.c: 20: delay(5000);
	movlw	low(01388h)
	movwf	(?_delay)
	movlw	high(01388h)
	movwf	((?_delay))+1
	fcall	_delay
	line	21
	
l1767:	
;7_SEG.c: 21: PORTC=0x99;
	movlw	(099h)
	bcf	status, 5	;RP0=0, select bank0
	bcf	status, 6	;RP1=0, select bank0
	movwf	(7)	;volatile
	line	22
	
l1769:	
;7_SEG.c: 22: delay(5000);
	movlw	low(01388h)
	movwf	(?_delay)
	movlw	high(01388h)
	movwf	((?_delay))+1
	fcall	_delay
	line	23
	
l1771:	
;7_SEG.c: 23: PORTC=0x92;
	movlw	(092h)
	bcf	status, 5	;RP0=0, select bank0
	bcf	status, 6	;RP1=0, select bank0
	movwf	(7)	;volatile
	line	24
	
l1773:	
;7_SEG.c: 24: delay(5000);
	movlw	low(01388h)
	movwf	(?_delay)
	movlw	high(01388h)
	movwf	((?_delay))+1
	fcall	_delay
	line	25
	
l1775:	
;7_SEG.c: 25: PORTC=0x82;
	movlw	(082h)
	bcf	status, 5	;RP0=0, select bank0
	bcf	status, 6	;RP1=0, select bank0
	movwf	(7)	;volatile
	line	26
	
l1777:	
;7_SEG.c: 26: delay(5000);
	movlw	low(01388h)
	movwf	(?_delay)
	movlw	high(01388h)
	movwf	((?_delay))+1
	fcall	_delay
	line	27
	
l1779:	
;7_SEG.c: 27: PORTC=0xf8;
	movlw	(0F8h)
	bcf	status, 5	;RP0=0, select bank0
	bcf	status, 6	;RP1=0, select bank0
	movwf	(7)	;volatile
	line	28
	
l1781:	
;7_SEG.c: 28: delay(5000);
	movlw	low(01388h)
	movwf	(?_delay)
	movlw	high(01388h)
	movwf	((?_delay))+1
	fcall	_delay
	line	29
	
l1783:	
;7_SEG.c: 29: PORTC=0x80;
	movlw	(080h)
	bcf	status, 5	;RP0=0, select bank0
	bcf	status, 6	;RP1=0, select bank0
	movwf	(7)	;volatile
	line	30
	
l1785:	
;7_SEG.c: 30: delay(5000);
	movlw	low(01388h)
	movwf	(?_delay)
	movlw	high(01388h)
	movwf	((?_delay))+1
	fcall	_delay
	line	31
	
l1787:	
;7_SEG.c: 31: PORTC=0x90;
	movlw	(090h)
	bcf	status, 5	;RP0=0, select bank0
	bcf	status, 6	;RP1=0, select bank0
	movwf	(7)	;volatile
	line	32
	
l1789:	
;7_SEG.c: 32: delay(5000);
	movlw	low(01388h)
	movwf	(?_delay)
	movlw	high(01388h)
	movwf	((?_delay))+1
	fcall	_delay
	goto	l687
	global	start
	ljmp	start
	opt stack 0
psect	maintext
	line	34
GLOBAL	__end_of_main
	__end_of_main:
;; =============== function _main ends ============

	signat	_main,88
	global	_delay
psect	text34,local,class=CODE,delta=2
global __ptext34
__ptext34:

;; *************** function _delay *****************
;; Defined at:
;;		line 37 in file "D:\EMBEDDED_CLASS\PIC16\7 SEGMENT\7_SEG.c"
;; Parameters:    Size  Location     Type
;;  a               2    0[COMMON] int 
;; Auto vars:     Size  Location     Type
;;  i               2    3[COMMON] int 
;; Return value:  Size  Location     Type
;;		None               void
;; Registers used:
;;		wreg, status,2, status,0
;; Tracked objects:
;;		On entry : 60/0
;;		On exit  : 0/0
;;		Unchanged: FFE00/0
;; Data sizes:     COMMON   BANK0   BANK1   BANK3   BANK2
;;      Params:         2       0       0       0       0
;;      Locals:         2       0       0       0       0
;;      Temps:          1       0       0       0       0
;;      Totals:         5       0       0       0       0
;;Total ram usage:        5 bytes
;; Hardware stack levels used:    1
;; This function calls:
;;		Nothing
;; This function is called by:
;;		_main
;; This function uses a non-reentrant model
;;
psect	text34
	file	"D:\EMBEDDED_CLASS\PIC16\7 SEGMENT\7_SEG.c"
	line	37
	global	__size_of_delay
	__size_of_delay	equ	__end_of_delay-_delay
	
_delay:	
	opt	stack 7
; Regs used in _delay: [wreg+status,2+status,0]
	line	39
	
l1743:	
;7_SEG.c: 38: int i;
;7_SEG.c: 39: for(i=0;i<=a;i++);
	clrf	(delay@i)
	clrf	(delay@i+1)
	goto	l1747
	
l1745:	
	incf	(delay@i),f
	skipnz
	incf	(delay@i+1),f
	
l1747:	
	movf	(delay@a+1),w
	xorlw	80h
	movwf	(??_delay+0)+0
	movf	(delay@i+1),w
	xorlw	80h
	subwf	(??_delay+0)+0,w
	skipz
	goto	u15
	movf	(delay@i),w
	subwf	(delay@a),w
u15:

	skipnc
	goto	u11
	goto	u10
u11:
	goto	l1745
u10:
	line	40
	
l696:	
	return
	opt stack 0
GLOBAL	__end_of_delay
	__end_of_delay:
;; =============== function _delay ends ============

	signat	_delay,4216
psect	text35,local,class=CODE,delta=2
global __ptext35
__ptext35:
	global	btemp
	btemp set 07Eh

	DABS	1,126,2	;btemp
	global	wtemp0
	wtemp0 set btemp
	end
