opt subtitle "HI-TECH Software Omniscient Code Generator (PRO mode) build 10920"

opt pagewidth 120

	opt pm

	processor	16F877A
clrc	macro
	bcf	3,0
	endm
clrz	macro
	bcf	3,2
	endm
setc	macro
	bsf	3,0
	endm
setz	macro
	bsf	3,2
	endm
skipc	macro
	btfss	3,0
	endm
skipz	macro
	btfss	3,2
	endm
skipnc	macro
	btfsc	3,0
	endm
skipnz	macro
	btfsc	3,2
	endm
indf	equ	0
indf0	equ	0
pc	equ	2
pcl	equ	2
status	equ	3
fsr	equ	4
fsr0	equ	4
c	equ	1
z	equ	0
pclath	equ	10
# 4 "D:\EMBEDDED_CLASS\PIC16\timer\Main.c"
	psect config,class=CONFIG,delta=2 ;#
# 4 "D:\EMBEDDED_CLASS\PIC16\timer\Main.c"
	dw 0xFFFE & 0xFFFB & 0xFFF7 & 0xFFFF & 0xFFFF & 0xFF7F & 0xFFFF & 0xFFFF & 0xFFFF ;#
	FNCALL	_main,_InitTimer1
	FNROOT	_main
	FNCALL	intlevel1,_ISR
	global	intlevel1
	FNROOT	intlevel1
	global	_T1CON
psect	text37,local,class=CODE,delta=2
global __ptext37
__ptext37:
_T1CON	set	16
	global	_TMR1H
_TMR1H	set	15
	global	_TMR1L
_TMR1L	set	14
	global	_GIE
_GIE	set	95
	global	_PEIE
_PEIE	set	94
	global	_RB0
_RB0	set	48
	global	_TMR1IF
_TMR1IF	set	96
	global	_TMR1IE
_TMR1IE	set	1120
	global	_TRISB0
_TRISB0	set	1072
	file	"timer.as"
	line	#
psect cinit,class=CODE,delta=2
global start_initialization
start_initialization:

psect cinit,class=CODE,delta=2
global end_of_initialization

;End of C runtime variable initialization code

end_of_initialization:
clrf status
ljmp _main	;jump to C main() function
psect	cstackCOMMON,class=COMMON,space=1
global __pcstackCOMMON
__pcstackCOMMON:
	global	?_InitTimer1
?_InitTimer1:	; 0 bytes @ 0x0
	global	?_main
?_main:	; 0 bytes @ 0x0
	global	?_ISR
?_ISR:	; 0 bytes @ 0x0
	global	??_ISR
??_ISR:	; 0 bytes @ 0x0
	ds	2
	global	??_InitTimer1
??_InitTimer1:	; 0 bytes @ 0x2
	global	??_main
??_main:	; 0 bytes @ 0x2
;;Data sizes: Strings 0, constant 0, data 0, bss 0, persistent 0 stack 0
;;Auto spaces:   Size  Autos    Used
;; COMMON          14      2       2
;; BANK0           80      0       0
;; BANK1           80      0       0
;; BANK3           96      0       0
;; BANK2           96      0       0

;;
;; Pointer list with targets:



;;
;; Critical Paths under _main in COMMON
;;
;;   None.
;;
;; Critical Paths under _ISR in COMMON
;;
;;   None.
;;
;; Critical Paths under _main in BANK0
;;
;;   None.
;;
;; Critical Paths under _ISR in BANK0
;;
;;   None.
;;
;; Critical Paths under _main in BANK1
;;
;;   None.
;;
;; Critical Paths under _ISR in BANK1
;;
;;   None.
;;
;; Critical Paths under _main in BANK3
;;
;;   None.
;;
;; Critical Paths under _ISR in BANK3
;;
;;   None.
;;
;; Critical Paths under _main in BANK2
;;
;;   None.
;;
;; Critical Paths under _ISR in BANK2
;;
;;   None.

;;
;;Main: autosize = 0, tempsize = 0, incstack = 0, save=0
;;

;;
;;Call Graph Tables:
;;
;; ---------------------------------------------------------------------------------
;; (Depth) Function   	        Calls       Base Space   Used Autos Params    Refs
;; ---------------------------------------------------------------------------------
;; (0) _main                                                 0     0      0       0
;;                         _InitTimer1
;; ---------------------------------------------------------------------------------
;; (1) _InitTimer1                                           0     0      0       0
;; ---------------------------------------------------------------------------------
;; Estimated maximum stack depth 1
;; ---------------------------------------------------------------------------------
;; (Depth) Function   	        Calls       Base Space   Used Autos Params    Refs
;; ---------------------------------------------------------------------------------
;; (2) _ISR                                                  2     2      0       0
;;                                              0 COMMON     2     2      0
;; ---------------------------------------------------------------------------------
;; Estimated maximum stack depth 2
;; ---------------------------------------------------------------------------------

;; Call Graph Graphs:

;; _main (ROOT)
;;   _InitTimer1
;;
;; _ISR (ROOT)
;;

;; Address spaces:

;;Name               Size   Autos  Total    Cost      Usage
;;BITCOMMON            E      0       0       0        0.0%
;;EEDATA             100      0       0       0        0.0%
;;NULL                 0      0       0       0        0.0%
;;CODE                 0      0       0       0        0.0%
;;COMMON               E      2       2       1       14.3%
;;BITSFR0              0      0       0       1        0.0%
;;SFR0                 0      0       0       1        0.0%
;;BITSFR1              0      0       0       2        0.0%
;;SFR1                 0      0       0       2        0.0%
;;STACK                0      0       1       2        0.0%
;;ABS                  0      0       0       3        0.0%
;;BITBANK0            50      0       0       4        0.0%
;;BITSFR3              0      0       0       4        0.0%
;;SFR3                 0      0       0       4        0.0%
;;BANK0               50      0       0       5        0.0%
;;BITSFR2              0      0       0       5        0.0%
;;SFR2                 0      0       0       5        0.0%
;;BITBANK1            50      0       0       6        0.0%
;;BANK1               50      0       0       7        0.0%
;;BITBANK3            60      0       0       8        0.0%
;;BANK3               60      0       0       9        0.0%
;;BITBANK2            60      0       0      10        0.0%
;;BANK2               60      0       0      11        0.0%
;;DATA                 0      0       0      12        0.0%

	global	_main
psect	maintext,global,class=CODE,delta=2
global __pmaintext
__pmaintext:

;; *************** function _main *****************
;; Defined at:
;;		line 9 in file "D:\EMBEDDED_CLASS\PIC16\timer\Main.c"
;; Parameters:    Size  Location     Type
;;		None
;; Auto vars:     Size  Location     Type
;;		None
;; Return value:  Size  Location     Type
;;		None               void
;; Registers used:
;;		wreg, status,2, status,0, pclath, cstack
;; Tracked objects:
;;		On entry : 17F/0
;;		On exit  : 15F/0
;;		Unchanged: FFE80/0
;; Data sizes:     COMMON   BANK0   BANK1   BANK3   BANK2
;;      Params:         0       0       0       0       0
;;      Locals:         0       0       0       0       0
;;      Temps:          0       0       0       0       0
;;      Totals:         0       0       0       0       0
;;Total ram usage:        0 bytes
;; Hardware stack levels required when called:    2
;; This function calls:
;;		_InitTimer1
;; This function is called by:
;;		Startup code after reset
;; This function uses a non-reentrant model
;;
psect	maintext
	file	"D:\EMBEDDED_CLASS\PIC16\timer\Main.c"
	line	9
	global	__size_of_main
	__size_of_main	equ	__end_of_main-_main
	
_main:	
	opt	stack 6
; Regs used in _main: [wreg+status,2+status,0+pclath+cstack]
	line	10
	
l3126:	
;Main.c: 10: TRISB0 = 0;
	bsf	status, 5	;RP0=1, select bank1
	bcf	(1072/8)^080h,(1072)&7
	line	11
;Main.c: 11: RB0 = 0;
	bcf	status, 5	;RP0=0, select bank0
	bcf	(48/8),(48)&7
	line	13
	
l3128:	
;Main.c: 13: InitTimer1();
	fcall	_InitTimer1
	line	17
;Main.c: 16: {
	
l688:	
	line	15
	goto	l688
	global	start
	ljmp	start
	opt stack 0
psect	maintext
	line	18
GLOBAL	__end_of_main
	__end_of_main:
;; =============== function _main ends ============

	signat	_main,88
	global	_InitTimer1
psect	text38,local,class=CODE,delta=2
global __ptext38
__ptext38:

;; *************** function _InitTimer1 *****************
;; Defined at:
;;		line 7 in file "D:\EMBEDDED_CLASS\PIC16\timer\Timer.c"
;; Parameters:    Size  Location     Type
;;		None
;; Auto vars:     Size  Location     Type
;;		None
;; Return value:  Size  Location     Type
;;		None               void
;; Registers used:
;;		wreg, status,2
;; Tracked objects:
;;		On entry : 17F/0
;;		On exit  : 17F/20
;;		Unchanged: FFE80/0
;; Data sizes:     COMMON   BANK0   BANK1   BANK3   BANK2
;;      Params:         0       0       0       0       0
;;      Locals:         0       0       0       0       0
;;      Temps:          0       0       0       0       0
;;      Totals:         0       0       0       0       0
;;Total ram usage:        0 bytes
;; Hardware stack levels used:    1
;; Hardware stack levels required when called:    1
;; This function calls:
;;		Nothing
;; This function is called by:
;;		_main
;; This function uses a non-reentrant model
;;
psect	text38
	file	"D:\EMBEDDED_CLASS\PIC16\timer\Timer.c"
	line	7
	global	__size_of_InitTimer1
	__size_of_InitTimer1	equ	__end_of_InitTimer1-_InitTimer1
	
_InitTimer1:	
	opt	stack 6
; Regs used in _InitTimer1: [wreg+status,2]
	line	8
	
l3108:	
;Timer.c: 8: TMR1H = 0;
	clrf	(15)	;volatile
	line	9
;Timer.c: 9: TMR1L = 0;
	clrf	(14)	;volatile
	line	12
	
l3110:	
;Timer.c: 12: T1CON = 0x01;
	movlw	(01h)
	movwf	(16)	;volatile
	line	14
	
l3112:	
;Timer.c: 14: TMR1IF = 0;
	bcf	(96/8),(96)&7
	line	15
	
l3114:	
;Timer.c: 15: TMR1IE = 1;
	bsf	status, 5	;RP0=1, select bank1
	bsf	(1120/8)^080h,(1120)&7
	line	16
	
l3116:	
;Timer.c: 16: PEIE = 1;
	bsf	(94/8),(94)&7
	line	17
	
l3118:	
;Timer.c: 17: GIE = 1;
	bsf	(95/8),(95)&7
	line	18
	
l2061:	
	return
	opt stack 0
GLOBAL	__end_of_InitTimer1
	__end_of_InitTimer1:
;; =============== function _InitTimer1 ends ============

	signat	_InitTimer1,88
	global	_ISR
psect	text39,local,class=CODE,delta=2
global __ptext39
__ptext39:

;; *************** function _ISR *****************
;; Defined at:
;;		line 5 in file "D:\EMBEDDED_CLASS\PIC16\timer\ISR.c"
;; Parameters:    Size  Location     Type
;;		None
;; Auto vars:     Size  Location     Type
;;		None
;; Return value:  Size  Location     Type
;;		None               void
;; Registers used:
;;		wreg
;; Tracked objects:
;;		On entry : 0/0
;;		On exit  : 60/0
;;		Unchanged: FFF9F/0
;; Data sizes:     COMMON   BANK0   BANK1   BANK3   BANK2
;;      Params:         0       0       0       0       0
;;      Locals:         0       0       0       0       0
;;      Temps:          2       0       0       0       0
;;      Totals:         2       0       0       0       0
;;Total ram usage:        2 bytes
;; Hardware stack levels used:    1
;; This function calls:
;;		Nothing
;; This function is called by:
;;		Interrupt level 1
;; This function uses a non-reentrant model
;;
psect	text39
	file	"D:\EMBEDDED_CLASS\PIC16\timer\ISR.c"
	line	5
	global	__size_of_ISR
	__size_of_ISR	equ	__end_of_ISR-_ISR
	
_ISR:	
	opt	stack 6
; Regs used in _ISR: [wreg]
psect	intentry,class=CODE,delta=2
global __pintentry
__pintentry:
global interrupt_function
interrupt_function:
	global saved_w
	saved_w	set	btemp+0
	movwf	saved_w
	swapf	status,w
	movwf	(??_ISR+0)
	movf	pclath,w
	movwf	(??_ISR+1)
	ljmp	_ISR
psect	text39
	line	6
	
i1l3120:	
;ISR.c: 6: if(TMR1IF)
	bcf	status, 5	;RP0=0, select bank0
	bcf	status, 6	;RP1=0, select bank0
	btfss	(96/8),(96)&7
	goto	u1_21
	goto	u1_20
u1_21:
	goto	i1l1376
u1_20:
	line	8
	
i1l3122:	
;ISR.c: 7: {
;ISR.c: 8: RB0 = ~RB0;
	movlw	1<<((48)&7)
	xorwf	((48)/8),f
	line	10
	
i1l3124:	
;ISR.c: 10: TMR1IF = 0;
	bcf	(96/8),(96)&7
	line	12
	
i1l1376:	
	movf	(??_ISR+1),w
	movwf	pclath
	swapf	(??_ISR+0)^0FFFFFF80h,w
	movwf	status
	swapf	saved_w,f
	swapf	saved_w,w
	retfie
	opt stack 0
GLOBAL	__end_of_ISR
	__end_of_ISR:
;; =============== function _ISR ends ============

	signat	_ISR,88
psect	text40,local,class=CODE,delta=2
global __ptext40
__ptext40:
	global	btemp
	btemp set 07Eh

	DABS	1,126,2	;btemp
	global	wtemp0
	wtemp0 set btemp
	end
